; Function Attrs: nounwind uwtable
define dso_local noundef i64 @json_object_agg_finalfn(ptr noundef captures(none) %0) local_unnamed_addr #0 {
  %2 = getelementptr inbounds nuw i8, ptr %0, i64 40
  %3 = load i8, ptr %2, align 8, !range !4, !noundef !5
  %4 = trunc nuw i8 %3 to i1
  br i1 %4, label %.thread, label %5

5:                                                ; preds = %1
  %6 = getelementptr inbounds nuw i8, ptr %0, i64 32
  %7 = load i64, ptr %6, align 8
  %8 = icmp eq i64 %7, 0
  br i1 %8, label %.thread, label %10

.thread:                                          ; preds = %1, %5
  %9 = getelementptr inbounds nuw i8, ptr %0, i64 28
  store i8 1, ptr %9, align 4
  br label %24

10:                                               ; preds = %5
  %11 = inttoptr i64 %7 to ptr
  %12 = load ptr, ptr %11, align 8
  %13 = getelementptr inbounds nuw i8, ptr %12, i64 8
  %14 = load i32, ptr %13, align 8
  %15 = add i32 %14, 6
  %16 = sext i32 %15 to i64
  %17 = tail call ptr @palloc(i64 noundef %16) #10
  %18 = shl i32 %15, 2
  store i32 %18, ptr %17, align 4
  %19 = getelementptr inbounds nuw i8, ptr %17, i64 4
  %20 = load ptr, ptr %12, align 8
  %21 = sext i32 %14 to i64
  tail call void @llvm.memcpy.p0.p0.i64(ptr nonnull align 4 %19, ptr align 1 %20, i64 %21, i1 false)
  %22 = getelementptr inbounds i8, ptr %19, i64 %21
  store i16 32032, ptr %22, align 1
  %23 = ptrtoint ptr %17 to i64
  br label %24

24:                                               ; preds = %10, %.thread
  %.0 = phi i64 [ 0, %.thread ], [ %23, %10 ]
  ret i64 %.0
}